; Function Attrs: mustprogress uwtable
define void @_ZN17grpc_event_engine12experimental14BasicWorkQueue3AddEPNS0_11EventEngine7ClosureE(ptr noundef nonnull align 8 dereferenceable(104) %0, ptr noundef %1) unnamed_addr #3 align 2 personality ptr @__gxx_personality_v0 {
  %3 = alloca ptr, align 8
  store ptr %1, ptr %3, align 8, !tbaa !31
  %4 = getelementptr inbounds nuw i8, ptr %0, i64 8
  tail call void @_ZN4absl12lts_202407225Mutex4LockEv(ptr noundef nonnull align 8 dereferenceable(8) %4)
  %5 = getelementptr inbounds nuw i8, ptr %0, i64 64
  %6 = load ptr, ptr %5, align 8, !tbaa !35
  %7 = getelementptr inbounds nuw i8, ptr %0, i64 80
  %8 = load ptr, ptr %7, align 8, !tbaa !40
  %9 = getelementptr inbounds i8, ptr %8, i64 -8
  %.not.i = icmp eq ptr %6, %9
  br i1 %.not.i, label %12, label %10

10:                                               ; preds = %2
  store ptr %1, ptr %6, align 8, !tbaa !31
  %11 = getelementptr inbounds nuw i8, ptr %6, i64 8
  store ptr %11, ptr %5, align 8, !tbaa !35
  br label %_ZNSt5dequeIPN17grpc_event_engine12experimental11EventEngine7ClosureESaIS4_EE9push_backERKS4_.exit

12:                                               ; preds = %2
  %13 = getelementptr inbounds nuw i8, ptr %0, i64 16
  invoke void @_ZNSt5dequeIPN17grpc_event_engine12experimental11EventEngine7ClosureESaIS4_EE16_M_push_back_auxIJRKS4_EEEvDpOT_(ptr noundef nonnull align 8 dereferenceable(80) %13, ptr noundef nonnull align 8 dereferenceable(8) %3)
          to label %_ZNSt5dequeIPN17grpc_event_engine12experimental11EventEngine7ClosureESaIS4_EE9push_backERKS4_.exit unwind label %17

_ZNSt5dequeIPN17grpc_event_engine12experimental11EventEngine7ClosureESaIS4_EE9push_backERKS4_.exit: ; preds = %10, %12
  invoke void @_ZN4absl12lts_202407225Mutex6UnlockEv(ptr noundef nonnull align 8 dereferenceable(8) %4)
          to label %_ZN4absl12lts_202407229MutexLockD2Ev.exit unwind label %14

14:                                               ; preds = %_ZNSt5dequeIPN17grpc_event_engine12experimental11EventEngine7ClosureESaIS4_EE9push_backERKS4_.exit
  %15 = landingpad { ptr, i32 }
          catch ptr null
  %16 = extractvalue { ptr, i32 } %15, 0
  call void @__clang_call_terminate(ptr %16) #16
  unreachable

_ZN4absl12lts_202407229MutexLockD2Ev.exit:        ; preds = %_ZNSt5dequeIPN17grpc_event_engine12experimental11EventEngine7ClosureESaIS4_EE9push_backERKS4_.exit
  ret void

17:                                               ; preds = %12
  %18 = landingpad { ptr, i32 }
          cleanup
  invoke void @_ZN4absl12lts_202407225Mutex6UnlockEv(ptr noundef nonnull align 8 dereferenceable(8) %4)
          to label %_ZN4absl12lts_202407229MutexLockD2Ev.exit2 unwind label %19

19:                                               ; preds = %17
  %20 = landingpad { ptr, i32 }
          catch ptr null
  %21 = extractvalue { ptr, i32 } %20, 0
  call void @__clang_call_terminate(ptr %21) #16
  unreachable

_ZN4absl12lts_202407229MutexLockD2Ev.exit2:       ; preds = %17
  resume { ptr, i32 } %18
}